target datalayout = "e-m:e-p270:32:32-p271:32:32-p272:64:64-i64:64-i128:128-f80:128-n8:16:32:64-S128"
target triple = "x86_64-pc-linux-gnu"

%struct._zend_array = type { %struct._zend_refcounted_h, %union.anon.4, i32, %union.anon.6, i32, i32, i32, i32, i64, ptr }
%struct._zend_refcounted_h = type { i32, %union.anon.3 }
%union.anon.3 = type { i32 }
%union.anon.4 = type { i32 }
%union.anon.6 = type { ptr }

@internal_attributes = internal global %struct._zend_array zeroinitializer, align 8

; Function Attrs: nounwind uwtable
define ptr @zend_internal_attribute_get(ptr noundef %0) #0 {
  %2 = alloca ptr, align 8
  %3 = alloca ptr, align 8
  %4 = alloca ptr, align 8
  %5 = alloca ptr, align 8
  %6 = alloca ptr, align 8
  store ptr %0, ptr %6, align 8
  %7 = load ptr, ptr %6, align 8
  store ptr @internal_attributes, ptr %3, align 8
  store ptr %7, ptr %4, align 8
  %8 = load ptr, ptr %3, align 8
  %9 = load ptr, ptr %4, align 8
  %10 = call ptr @zend_hash_find(ptr noundef %8, ptr noundef %9) #12
  store ptr %10, ptr %5, align 8
  %11 = load ptr, ptr %5, align 8
  %12 = icmp ne ptr %11, null
  br i1 %12, label %13, label %19

13:                                               ; preds = %1
  %14 = load ptr, ptr %5, align 8
  %15 = load ptr, ptr %14, align 8
  %16 = icmp ne ptr %15, null
  call void @llvm.assume(i1 %16)
  %17 = load ptr, ptr %5, align 8
  %18 = load ptr, ptr %17, align 8
  store ptr %18, ptr %2, align 8
  br label %20

19:                                               ; preds = %1
  store ptr null, ptr %2, align 8
  br label %20

20:                                               ; preds = %19, %13
  %21 = load ptr, ptr %2, align 8
  ret ptr %21
}