; Function Attrs: nounwind uwtable
define noundef ptr @zend_internal_attribute_get(ptr noundef %0) local_unnamed_addr #0 {
  %2 = tail call ptr @zend_hash_find(ptr noundef nonnull @internal_attributes, ptr noundef %0) #16
  %.not = icmp eq ptr %2, null
  br i1 %.not, label %5, label %3

3:                                                ; preds = %1
  %4 = load ptr, ptr %2, align 8, !nonnull !4, !noundef !4
  br label %5

5:                                                ; preds = %1, %3
  %.0 = phi ptr [ %4, %3 ], [ null, %1 ]
  ret ptr %.0
}